; Function Attrs: mustprogress uwtable
define hidden void @_ZN16proof_post_orderC2EP3appR11ast_manager(ptr noundef nonnull align 8 dereferenceable(72) initializes((0, 16), (24, 40), (48, 72)) %0, ptr noundef %1, ptr noundef nonnull align 8 dereferenceable(976) %2) unnamed_addr #3 align 2 personality ptr @__gxx_personality_v0 {
  store ptr null, ptr %0, align 8, !tbaa !3
  %4 = getelementptr inbounds nuw i8, ptr %0, i64 8
  store ptr getelementptr inbounds nuw inrange(-16, 32) (i8, ptr @_ZTV8ast_mark, i64 16), ptr %4, align 8, !tbaa !10
  %5 = getelementptr inbounds nuw i8, ptr %0, i64 24
  tail call void @llvm.memset.p0.i64(ptr noundef nonnull align 8 dereferenceable(16) %5, i8 0, i64 16, i1 false)
  %6 = getelementptr inbounds nuw i8, ptr %0, i64 48
  tail call void @llvm.memset.p0.i64(ptr noundef nonnull align 8 dereferenceable(16) %6, i8 0, i64 16, i1 false)
  %7 = getelementptr inbounds nuw i8, ptr %0, i64 64
  store ptr %2, ptr %7, align 8, !tbaa !12
  invoke void @_ZN6vectorIP3appLb0EjE13expand_vectorEv(ptr noundef nonnull align 8 dereferenceable(8) %0)
          to label %8 unwind label %12

8:                                                ; preds = %3
  %.pre.i = load ptr, ptr %0, align 8, !tbaa !3
  %.phi.trans.insert.i = getelementptr inbounds i8, ptr %.pre.i, i64 -4
  %.pre2.i = load i32, ptr %.phi.trans.insert.i, align 4, !tbaa !14
  %9 = zext i32 %.pre2.i to i64
  %10 = getelementptr inbounds nuw ptr, ptr %.pre.i, i64 %9
  store ptr %1, ptr %10, align 8, !tbaa !16
  %11 = add i32 %.pre2.i, 1
  store i32 %11, ptr %.phi.trans.insert.i, align 4, !tbaa !14
  ret void

12:                                               ; preds = %3
  %13 = landingpad { ptr, i32 }
          cleanup
  tail call void @_ZN8ast_markD2Ev(ptr noundef nonnull align 8 dereferenceable(56) %4) #20
  tail call void @_ZN6vectorIP3appLb0EjED2Ev(ptr noundef nonnull align 8 dereferenceable(8) %0) #20
  resume { ptr, i32 } %13
}